target datalayout = "e-m:e-p270:32:32-p271:32:32-p272:64:64-i64:64-i128:128-f80:128-n8:16:32:64-S128"
target triple = "x86_64-pc-linux-gnu"

%"class.google::protobuf::io::CodedInputStream" = type { ptr, ptr, ptr, i32, i32, i32, i8, i8, i32, i32, i32, i32, i32, ptr, ptr }
%"struct.google::protobuf::Metadata" = type { ptr, ptr }
%"class.google::protobuf::Descriptor" = type { %"class.google::protobuf::internal::SymbolBase", i8, i16, i32, ptr, ptr, ptr, ptr, ptr, ptr, ptr, ptr, ptr, ptr, ptr, ptr, i32, i32, i32, i32, i32, i32, i32, i32 }
%"class.google::protobuf::internal::SymbolBase" = type { i8 }
%"class.google::protobuf::internal::CachedSize" = type { %"struct.std::atomic" }
%"struct.std::atomic" = type { %"struct.std::__atomic_base" }
%"struct.std::__atomic_base" = type { i32 }
%"class.google::protobuf::MessageOptions" = type <{ %"class.google::protobuf::Message", %"class.google::protobuf::internal::ExtensionSet", %"class.google::protobuf::internal::HasBits", %"class.google::protobuf::internal::CachedSize", %"class.google::protobuf::RepeatedPtrField", i8, i8, i8, i8, [4 x i8] }>
%"class.google::protobuf::Message" = type { %"class.google::protobuf::MessageLite" }
%"class.google::protobuf::MessageLite" = type { ptr, %"class.google::protobuf::internal::InternalMetadata" }
%"class.google::protobuf::internal::InternalMetadata" = type { i64 }
%"class.google::protobuf::internal::ExtensionSet" = type { ptr, i16, i16, %"union.google::protobuf::internal::ExtensionSet::AllocatedData" }
%"union.google::protobuf::internal::ExtensionSet::AllocatedData" = type { ptr }
%"class.google::protobuf::internal::HasBits" = type { [1 x i32] }
%"class.google::protobuf::RepeatedPtrField" = type { %"class.google::protobuf::internal::RepeatedPtrFieldBase" }
%"class.google::protobuf::internal::RepeatedPtrFieldBase" = type { ptr, i32, i32, ptr }

; Function Attrs: inlinehint mustprogress nounwind uwtable
define linkonce_odr hidden void @_ZN6google8protobuf2io16CodedInputStream7AdvanceEi(ptr noundef nonnull align 8 dereferenceable(80) %0, i32 noundef %1) #6 comdat align 2 {
  %3 = alloca ptr, align 8
  %4 = alloca i32, align 4
  store ptr %0, ptr %3, align 8, !tbaa !8
  store i32 %1, ptr %4, align 4, !tbaa !10
  %5 = load ptr, ptr %3, align 8
  %6 = load i32, ptr %4, align 4, !tbaa !10
  %7 = getelementptr inbounds nuw %"class.google::protobuf::io::CodedInputStream", ptr %5, i32 0, i32 0
  %8 = load ptr, ptr %7, align 8, !tbaa !25
  %9 = sext i32 %6 to i64
  %10 = getelementptr inbounds i8, ptr %8, i64 %9
  store ptr %10, ptr %7, align 8, !tbaa !25
  ret void
}

; Function Attrs: inlinehint mustprogress nounwind uwtable
define linkonce_odr hidden noundef zeroext i1 @_ZNK6google8protobuf14MessageOptions33_internal_message_set_wire_formatEv(ptr noundef nonnull align 8 dereferenceable(80) %0) #6 comdat align 2 {
  %2 = alloca ptr, align 8
  store ptr %0, ptr %2, align 8, !tbaa !99
  %3 = load ptr, ptr %2, align 8
  %4 = getelementptr inbounds nuw %"class.google::protobuf::MessageOptions", ptr %3, i32 0, i32 5
  %5 = load i8, ptr %4, align 8, !tbaa !322, !range !37, !noundef !38
  %6 = trunc i8 %5 to i1
  ret i1 %6
}

; Function Attrs: alwaysinline mustprogress uwtable
define linkonce_odr hidden noundef i32 @_ZN6google8protobuf2io16CodedInputStream16ReadTagNoLastTagEv(ptr noundef nonnull align 8 dereferenceable(80) %0) #8 comdat align 2 {
  %2 = alloca i32, align 4
  %3 = alloca ptr, align 8
  %4 = alloca i32, align 4
  %5 = alloca i32, align 4
  store ptr %0, ptr %3, align 8, !tbaa !8
  %6 = load ptr, ptr %3, align 8
  call void @llvm.lifetime.start.p0(i64 4, ptr %4) #3
  store i32 0, ptr %4, align 4, !tbaa !10
  %7 = getelementptr inbounds nuw %"class.google::protobuf::io::CodedInputStream", ptr %6, i32 0, i32 0
  %8 = load ptr, ptr %7, align 8, !tbaa !25
  %9 = getelementptr inbounds nuw %"class.google::protobuf::io::CodedInputStream", ptr %6, i32 0, i32 1
  %10 = load ptr, ptr %9, align 8, !tbaa !32
  %11 = icmp ult ptr %8, %10
  %12 = zext i1 %11 to i64
  %13 = call i64 @llvm.expect.i64(i64 %12, i64 1)
  %14 = icmp ne i64 %13, 0
  br i1 %14, label %15, label %25

15:                                               ; preds = %1
  %16 = getelementptr inbounds nuw %"class.google::protobuf::io::CodedInputStream", ptr %6, i32 0, i32 0
  %17 = load ptr, ptr %16, align 8, !tbaa !25
  %18 = load i8, ptr %17, align 1, !tbaa !33
  %19 = zext i8 %18 to i32
  store i32 %19, ptr %4, align 4, !tbaa !10
  %20 = load i32, ptr %4, align 4, !tbaa !10
  %21 = icmp ult i32 %20, 128
  br i1 %21, label %22, label %24

22:                                               ; preds = %15
  call void @_ZN6google8protobuf2io16CodedInputStream7AdvanceEi(ptr noundef nonnull align 8 dereferenceable(80) %6, i32 noundef 1)
  %23 = load i32, ptr %4, align 4, !tbaa !10
  store i32 %23, ptr %2, align 4
  store i32 1, ptr %5, align 4
  br label %29

24:                                               ; preds = %15
  br label %25

25:                                               ; preds = %24, %1
  %26 = load i32, ptr %4, align 4, !tbaa !10
  %27 = call noundef i32 @_ZN6google8protobuf2io16CodedInputStream15ReadTagFallbackEj(ptr noundef nonnull align 8 dereferenceable(80) %6, i32 noundef %26)
  store i32 %27, ptr %4, align 4, !tbaa !10
  %28 = load i32, ptr %4, align 4, !tbaa !10
  store i32 %28, ptr %2, align 4
  store i32 1, ptr %5, align 4
  br label %29

29:                                               ; preds = %25, %22
  call void @llvm.lifetime.end.p0(i64 4, ptr %4) #3
  %30 = load i32, ptr %2, align 4
  ret i32 %30
}

; Function Attrs: inlinehint mustprogress uwtable
define linkonce_odr hidden noundef zeroext i1 @_ZNK6google8protobuf14MessageOptions23message_set_wire_formatEv(ptr noundef nonnull align 8 dereferenceable(80) %0) #7 comdat align 2 {
  %2 = alloca ptr, align 8
  store ptr %0, ptr %2, align 8, !tbaa !99
  %3 = load ptr, ptr %2, align 8
  %4 = call noundef zeroext i1 @_ZNK6google8protobuf14MessageOptions33_internal_message_set_wire_formatEv(ptr noundef nonnull align 8 dereferenceable(80) %3)
  ret i1 %4
}

; Function Attrs: inlinehint mustprogress nounwind uwtable
define linkonce_odr hidden noundef nonnull align 8 dereferenceable(80) ptr @_ZNK6google8protobuf10Descriptor7optionsEv(ptr noundef nonnull align 8 dereferenceable(136) %0) #6 comdat align 2 {
  %2 = alloca ptr, align 8
  store ptr %0, ptr %2, align 8, !tbaa !74
  %3 = load ptr, ptr %2, align 8
  %4 = getelementptr inbounds nuw %"class.google::protobuf::Descriptor", ptr %3, i32 0, i32 7
  %5 = load ptr, ptr %4, align 8, !tbaa !87
  ret ptr %5
}

; Function Attrs: inlinehint mustprogress nounwind uwtable
define linkonce_odr hidden noundef ptr @_ZN6google8protobuf2io16CodedInputStream16GetExtensionPoolEv(ptr noundef nonnull align 8 dereferenceable(80) %0) #6 comdat align 2 {
  %2 = alloca ptr, align 8
  store ptr %0, ptr %2, align 8, !tbaa !8
  %3 = load ptr, ptr %2, align 8
  %4 = getelementptr inbounds nuw %"class.google::protobuf::io::CodedInputStream", ptr %3, i32 0, i32 13
  %5 = load ptr, ptr %4, align 8, !tbaa !86
  ret ptr %5
}

; Function Attrs: inlinehint mustprogress uwtable
define linkonce_odr hidden noundef zeroext i1 @_ZNK6google8protobuf10Descriptor17IsExtensionNumberEi(ptr noundef nonnull align 8 dereferenceable(136) %0, i32 noundef %1) #7 comdat align 2 {
  %3 = alloca ptr, align 8
  %4 = alloca i32, align 4
  store ptr %0, ptr %3, align 8, !tbaa !74
  store i32 %1, ptr %4, align 4, !tbaa !10
  %5 = load ptr, ptr %3, align 8
  %6 = load i32, ptr %4, align 4, !tbaa !10
  %7 = call noundef ptr @_ZNK6google8protobuf10Descriptor34FindExtensionRangeContainingNumberEi(ptr noundef nonnull align 8 dereferenceable(136) %5, i32 noundef %6)
  %8 = icmp ne ptr %7, null
  ret i1 %8
}

; Function Attrs: inlinehint mustprogress nounwind uwtable
define linkonce_odr hidden noundef i32 @_ZN6google8protobuf8internal14WireFormatLite17GetTagFieldNumberEj(i32 noundef %0) #6 comdat align 2 {
  %2 = alloca i32, align 4
  store i32 %0, ptr %2, align 4, !tbaa !10
  %3 = load i32, ptr %2, align 4, !tbaa !10
  %4 = lshr i32 %3, 3
  ret i32 %4
}

; Function Attrs: inlinehint mustprogress nounwind uwtable
define linkonce_odr hidden noundef i32 @_ZN6google8protobuf8internal14WireFormatLite14GetTagWireTypeEj(i32 noundef %0) #6 comdat align 2 {
  %2 = alloca i32, align 4
  store i32 %0, ptr %2, align 4, !tbaa !10
  %3 = load i32, ptr %2, align 4, !tbaa !10
  %4 = and i32 %3, 7
  ret i32 %4
}

; Function Attrs: alwaysinline mustprogress uwtable
define linkonce_odr hidden noundef i32 @_ZN6google8protobuf2io16CodedInputStream7ReadTagEv(ptr noundef nonnull align 8 dereferenceable(80) %0) #8 comdat align 2 {
  %2 = alloca ptr, align 8
  store ptr %0, ptr %2, align 8, !tbaa !8
  %3 = load ptr, ptr %2, align 8
  %4 = call noundef i32 @_ZN6google8protobuf2io16CodedInputStream16ReadTagNoLastTagEv(ptr noundef nonnull align 8 dereferenceable(80) %3)
  %5 = getelementptr inbounds nuw %"class.google::protobuf::io::CodedInputStream", ptr %3, i32 0, i32 5
  store i32 %4, ptr %5, align 8, !tbaa !43
  ret i32 %4
}

; Function Attrs: mustprogress uwtable
define linkonce_odr hidden noundef ptr @_ZNK6google8protobuf7Message13GetReflectionEv(ptr noundef nonnull align 8 dereferenceable(16) %0) #4 comdat align 2 {
  %2 = alloca ptr, align 8
  %3 = alloca %"struct.google::protobuf::Metadata", align 8
  store ptr %0, ptr %2, align 8, !tbaa !72
  %4 = load ptr, ptr %2, align 8
  call void @llvm.lifetime.start.p0(i64 16, ptr %3) #3
  %5 = load ptr, ptr %4, align 8, !tbaa !81
  %6 = getelementptr inbounds ptr, ptr %5, i64 17
  %7 = load ptr, ptr %6, align 8
  %8 = call { ptr, ptr } %7(ptr noundef nonnull align 8 dereferenceable(16) %4)
  %9 = getelementptr inbounds nuw { ptr, ptr }, ptr %3, i32 0, i32 0
  %10 = extractvalue { ptr, ptr } %8, 0
  store ptr %10, ptr %9, align 8
  %11 = getelementptr inbounds nuw { ptr, ptr }, ptr %3, i32 0, i32 1
  %12 = extractvalue { ptr, ptr } %8, 1
  store ptr %12, ptr %11, align 8
  %13 = getelementptr inbounds nuw %"struct.google::protobuf::Metadata", ptr %3, i32 0, i32 1
  %14 = load ptr, ptr %13, align 8, !tbaa !85
  call void @llvm.lifetime.end.p0(i64 16, ptr %3) #3
  ret ptr %14
}

; Function Attrs: mustprogress uwtable
define linkonce_odr hidden noundef ptr @_ZNK6google8protobuf7Message13GetDescriptorEv(ptr noundef nonnull align 8 dereferenceable(16) %0) #4 comdat align 2 {
  %2 = alloca ptr, align 8
  %3 = alloca %"struct.google::protobuf::Metadata", align 8
  store ptr %0, ptr %2, align 8, !tbaa !72
  %4 = load ptr, ptr %2, align 8
  call void @llvm.lifetime.start.p0(i64 16, ptr %3) #3
  %5 = load ptr, ptr %4, align 8, !tbaa !81
  %6 = getelementptr inbounds ptr, ptr %5, i64 17
  %7 = load ptr, ptr %6, align 8
  %8 = call { ptr, ptr } %7(ptr noundef nonnull align 8 dereferenceable(16) %4)
  %9 = getelementptr inbounds nuw { ptr, ptr }, ptr %3, i32 0, i32 0
  %10 = extractvalue { ptr, ptr } %8, 0
  store ptr %10, ptr %9, align 8
  %11 = getelementptr inbounds nuw { ptr, ptr }, ptr %3, i32 0, i32 1
  %12 = extractvalue { ptr, ptr } %8, 1
  store ptr %12, ptr %11, align 8
  %13 = getelementptr inbounds nuw %"struct.google::protobuf::Metadata", ptr %3, i32 0, i32 0
  %14 = load ptr, ptr %13, align 8, !tbaa !83
  call void @llvm.lifetime.end.p0(i64 16, ptr %3) #3
  ret ptr %14
}

; Function Attrs: mustprogress uwtable
define hidden noundef zeroext i1 @_ZN6google8protobuf8internal10WireFormat20ParseAndMergePartialEPNS0_2io16CodedInputStreamEPNS0_7MessageE(ptr noundef %0, ptr noundef %1) #4 align 2 {
  %3 = alloca i1, align 1
  %4 = alloca ptr, align 8
  %5 = alloca ptr, align 8
  %6 = alloca ptr, align 8
  %7 = alloca ptr, align 8
  %8 = alloca i32, align 4
  %9 = alloca i32, align 4
  %10 = alloca ptr, align 8
  %11 = alloca i32, align 4
  store ptr %0, ptr %4, align 8, !tbaa !8
  store ptr %1, ptr %5, align 8, !tbaa !72
  call void @llvm.lifetime.start.p0(i64 8, ptr %6) #3
  %12 = load ptr, ptr %5, align 8, !tbaa !72
  %13 = call noundef ptr @_ZNK6google8protobuf7Message13GetDescriptorEv(ptr noundef nonnull align 8 dereferenceable(16) %12)
  store ptr %13, ptr %6, align 8, !tbaa !74
  call void @llvm.lifetime.start.p0(i64 8, ptr %7) #3
  %14 = load ptr, ptr %5, align 8, !tbaa !72
  %15 = call noundef ptr @_ZNK6google8protobuf7Message13GetReflectionEv(ptr noundef nonnull align 8 dereferenceable(16) %14)
  store ptr %15, ptr %7, align 8, !tbaa !76
  br label %16

16:                                               ; preds = %89, %87, %2
  br label %17

17:                                               ; preds = %16
  call void @llvm.lifetime.start.p0(i64 4, ptr %8) #3
  %18 = load ptr, ptr %4, align 8, !tbaa !8
  %19 = call noundef i32 @_ZN6google8protobuf2io16CodedInputStream7ReadTagEv(ptr noundef nonnull align 8 dereferenceable(80) %18)
  store i32 %19, ptr %8, align 4, !tbaa !10
  %20 = load i32, ptr %8, align 4, !tbaa !10
  %21 = icmp eq i32 %20, 0
  br i1 %21, label %22, label %23

22:                                               ; preds = %17
  store i1 true, ptr %3, align 1
  store i32 1, ptr %9, align 4
  br label %87

23:                                               ; preds = %17
  %24 = load i32, ptr %8, align 4, !tbaa !10
  %25 = call noundef i32 @_ZN6google8protobuf8internal14WireFormatLite14GetTagWireTypeEj(i32 noundef %24)
  %26 = icmp eq i32 %25, 4
  br i1 %26, label %27, label %28

27:                                               ; preds = %23
  store i1 true, ptr %3, align 1
  store i32 1, ptr %9, align 4
  br label %87

28:                                               ; preds = %23
  call void @llvm.lifetime.start.p0(i64 8, ptr %10) #3
  store ptr null, ptr %10, align 8, !tbaa !78
  %29 = load ptr, ptr %6, align 8, !tbaa !74
  %30 = icmp ne ptr %29, null
  br i1 %30, label %31, label %78

31:                                               ; preds = %28
  call void @llvm.lifetime.start.p0(i64 4, ptr %11) #3
  %32 = load i32, ptr %8, align 4, !tbaa !10
  %33 = call noundef i32 @_ZN6google8protobuf8internal14WireFormatLite17GetTagFieldNumberEj(i32 noundef %32)
  store i32 %33, ptr %11, align 4, !tbaa !10
  %34 = load ptr, ptr %6, align 8, !tbaa !74
  %35 = load i32, ptr %11, align 4, !tbaa !10
  %36 = call noundef ptr @_ZNK6google8protobuf10Descriptor17FindFieldByNumberEi(ptr noundef nonnull align 8 dereferenceable(136) %34, i32 noundef %35)
  store ptr %36, ptr %10, align 8, !tbaa !78
  %37 = load ptr, ptr %10, align 8, !tbaa !78
  %38 = icmp eq ptr %37, null
  br i1 %38, label %39, label %58

39:                                               ; preds = %31
  %40 = load ptr, ptr %6, align 8, !tbaa !74
  %41 = load i32, ptr %11, align 4, !tbaa !10
  %42 = call noundef zeroext i1 @_ZNK6google8protobuf10Descriptor17IsExtensionNumberEi(ptr noundef nonnull align 8 dereferenceable(136) %40, i32 noundef %41)
  br i1 %42, label %43, label %58

43:                                               ; preds = %39
  %44 = load ptr, ptr %4, align 8, !tbaa !8
  %45 = call noundef ptr @_ZN6google8protobuf2io16CodedInputStream16GetExtensionPoolEv(ptr noundef nonnull align 8 dereferenceable(80) %44)
  %46 = icmp eq ptr %45, null
  br i1 %46, label %47, label %51

47:                                               ; preds = %43
  %48 = load ptr, ptr %7, align 8, !tbaa !76
  %49 = load i32, ptr %11, align 4, !tbaa !10
  %50 = call noundef ptr @_ZNK6google8protobuf10Reflection26FindKnownExtensionByNumberEi(ptr noundef nonnull align 8 dereferenceable(96) %48, i32 noundef %49)
  store ptr %50, ptr %10, align 8, !tbaa !78
  br label %57

51:                                               ; preds = %43
  %52 = load ptr, ptr %4, align 8, !tbaa !8
  %53 = call noundef ptr @_ZN6google8protobuf2io16CodedInputStream16GetExtensionPoolEv(ptr noundef nonnull align 8 dereferenceable(80) %52)
  %54 = load ptr, ptr %6, align 8, !tbaa !74
  %55 = load i32, ptr %11, align 4, !tbaa !10
  %56 = call noundef ptr @_ZNK6google8protobuf14DescriptorPool21FindExtensionByNumberEPKNS0_10DescriptorEi(ptr noundef nonnull align 8 dereferenceable(96) %53, ptr noundef %54, i32 noundef %55)
  store ptr %56, ptr %10, align 8, !tbaa !78
  br label %57

57:                                               ; preds = %51, %47
  br label %58

58:                                               ; preds = %57, %39, %31
  %59 = load ptr, ptr %10, align 8, !tbaa !78
  %60 = icmp eq ptr %59, null
  br i1 %60, label %61, label %74

61:                                               ; preds = %58
  %62 = load ptr, ptr %6, align 8, !tbaa !74
  %63 = call noundef nonnull align 8 dereferenceable(80) ptr @_ZNK6google8protobuf10Descriptor7optionsEv(ptr noundef nonnull align 8 dereferenceable(136) %62)
  %64 = call noundef zeroext i1 @_ZNK6google8protobuf14MessageOptions23message_set_wire_formatEv(ptr noundef nonnull align 8 dereferenceable(80) %63)
  br i1 %64, label %65, label %74

65:                                               ; preds = %61
  %66 = load i32, ptr %8, align 4, !tbaa !10
  %67 = icmp eq i32 %66, 11
  br i1 %67, label %68, label %74

68:                                               ; preds = %65
  %69 = load ptr, ptr %4, align 8, !tbaa !8
  %70 = load ptr, ptr %5, align 8, !tbaa !72
  %71 = call noundef zeroext i1 @_ZN6google8protobuf8internal10WireFormat27ParseAndMergeMessageSetItemEPNS0_2io16CodedInputStreamEPNS0_7MessageE(ptr noundef %69, ptr noundef %70)
  br i1 %71, label %73, label %72

72:                                               ; preds = %68
  store i1 false, ptr %3, align 1
  store i32 1, ptr %9, align 4
  br label %75

73:                                               ; preds = %68
  store i32 2, ptr %9, align 4
  br label %75, !llvm.loop !80

74:                                               ; preds = %65, %61, %58
  store i32 0, ptr %9, align 4
  br label %75

75:                                               ; preds = %74, %73, %72
  call void @llvm.lifetime.end.p0(i64 4, ptr %11) #3
  %76 = load i32, ptr %9, align 4
  switch i32 %76, label %86 [
    i32 0, label %77
  ]

77:                                               ; preds = %75
  br label %78

78:                                               ; preds = %77, %28
  %79 = load i32, ptr %8, align 4, !tbaa !10
  %80 = load ptr, ptr %10, align 8, !tbaa !78
  %81 = load ptr, ptr %5, align 8, !tbaa !72
  %82 = load ptr, ptr %4, align 8, !tbaa !8
  %83 = call noundef zeroext i1 @_ZN6google8protobuf8internal10WireFormat18ParseAndMergeFieldEjPKNS0_15FieldDescriptorEPNS0_7MessageEPNS0_2io16CodedInputStreamE(i32 noundef %79, ptr noundef %80, ptr noundef %81, ptr noundef %82)
  br i1 %83, label %85, label %84

84:                                               ; preds = %78
  store i1 false, ptr %3, align 1
  store i32 1, ptr %9, align 4
  br label %86

85:                                               ; preds = %78
  store i32 0, ptr %9, align 4
  br label %86

86:                                               ; preds = %85, %84, %75
  call void @llvm.lifetime.end.p0(i64 8, ptr %10) #3
  br label %87

87:                                               ; preds = %86, %27, %22
  call void @llvm.lifetime.end.p0(i64 4, ptr %8) #3
  %88 = load i32, ptr %9, align 4
  switch i32 %88, label %90 [
    i32 0, label %89
    i32 2, label %16
  ]

89:                                               ; preds = %87
  br label %16, !llvm.loop !80

90:                                               ; preds = %87
  call void @llvm.lifetime.end.p0(i64 8, ptr %7) #3
  call void @llvm.lifetime.end.p0(i64 8, ptr %6) #3
  %91 = load i1, ptr %3, align 1
  ret i1 %91
}