; Function Attrs: mustprogress uwtable
define hidden noundef zeroext i1 @_ZN6google8protobuf8internal10WireFormat20ParseAndMergePartialEPNS0_2io16CodedInputStreamEPNS0_7MessageE(ptr noundef %0, ptr noundef %1) local_unnamed_addr #3 align 2 {
  %3 = load ptr, ptr %1, align 8, !tbaa !53
  %4 = getelementptr inbounds nuw i8, ptr %3, i64 136
  %5 = load ptr, ptr %4, align 8
  %6 = tail call { ptr, ptr } %5(ptr noundef nonnull align 8 dereferenceable(16) %1)
  %.fr61 = freeze { ptr, ptr } %6
  %7 = extractvalue { ptr, ptr } %.fr61, 0
  %8 = load ptr, ptr %1, align 8, !tbaa !53
  %9 = getelementptr inbounds nuw i8, ptr %8, i64 136
  %10 = load ptr, ptr %9, align 8
  %11 = tail call { ptr, ptr } %10(ptr noundef nonnull align 8 dereferenceable(16) %1)
  %12 = extractvalue { ptr, ptr } %11, 1
  %13 = getelementptr inbounds nuw i8, ptr %0, i64 8
  %14 = getelementptr inbounds nuw i8, ptr %0, i64 32
  %.not = icmp eq ptr %7, null
  %15 = getelementptr inbounds nuw i8, ptr %0, i64 64
  %16 = getelementptr inbounds nuw i8, ptr %7, i64 32
  br i1 %.not, label %.split.us, label %.split

.split.us:                                        ; preds = %2, %.thread45.us
  %17 = load ptr, ptr %0, align 8, !tbaa !10
  %18 = load ptr, ptr %13, align 8, !tbaa !18
  %19 = icmp ult ptr %17, %18
  br i1 %19, label %20, label %24, !prof !19

20:                                               ; preds = %.split.us
  %21 = load i8, ptr %17, align 1, !tbaa !20
  %22 = zext i8 %21 to i32
  %23 = icmp sgt i8 %21, -1
  br i1 %23, label %26, label %24

24:                                               ; preds = %20, %.split.us
  %.0.i.us = phi i32 [ %22, %20 ], [ 0, %.split.us ]
  %25 = tail call noundef i32 @_ZN6google8protobuf2io16CodedInputStream15ReadTagFallbackEj(ptr noundef nonnull align 8 dereferenceable(80) %0, i32 noundef %.0.i.us)
  br label %_ZN6google8protobuf2io16CodedInputStream16ReadTagNoLastTagEv.exit.us

26:                                               ; preds = %20
  %27 = getelementptr inbounds nuw i8, ptr %17, i64 1
  store ptr %27, ptr %0, align 8, !tbaa !10
  br label %_ZN6google8protobuf2io16CodedInputStream16ReadTagNoLastTagEv.exit.us

_ZN6google8protobuf2io16CodedInputStream16ReadTagNoLastTagEv.exit.us: ; preds = %26, %24
  %.05.i.us = phi i32 [ %22, %26 ], [ %25, %24 ]
  store i32 %.05.i.us, ptr %14, align 8, !tbaa !24
  %28 = icmp eq i32 %.05.i.us, 0
  %29 = and i32 %.05.i.us, 7
  %30 = icmp eq i32 %29, 4
  %or.cond57.us = or i1 %28, %30
  br i1 %or.cond57.us, label %.split60.us, label %.thread45.us

.thread45.us:                                     ; preds = %_ZN6google8protobuf2io16CodedInputStream16ReadTagNoLastTagEv.exit.us
  %31 = tail call noundef zeroext i1 @_ZN6google8protobuf8internal10WireFormat18ParseAndMergeFieldEjPKNS0_15FieldDescriptorEPNS0_7MessageEPNS0_2io16CodedInputStreamE(i32 noundef %.05.i.us, ptr noundef null, ptr noundef nonnull %1, ptr noundef nonnull %0)
  br i1 %31, label %.split.us, label %.split60.us

.split:                                           ; preds = %2, %.split.backedge
  %32 = load ptr, ptr %0, align 8, !tbaa !10
  %33 = load ptr, ptr %13, align 8, !tbaa !18
  %34 = icmp ult ptr %32, %33
  br i1 %34, label %35, label %41, !prof !19

35:                                               ; preds = %.split
  %36 = load i8, ptr %32, align 1, !tbaa !20
  %37 = zext i8 %36 to i32
  %38 = icmp sgt i8 %36, -1
  br i1 %38, label %39, label %41

39:                                               ; preds = %35
  %40 = getelementptr inbounds nuw i8, ptr %32, i64 1
  store ptr %40, ptr %0, align 8, !tbaa !10
  br label %_ZN6google8protobuf2io16CodedInputStream16ReadTagNoLastTagEv.exit

41:                                               ; preds = %35, %.split
  %.0.i = phi i32 [ %37, %35 ], [ 0, %.split ]
  %42 = tail call noundef i32 @_ZN6google8protobuf2io16CodedInputStream15ReadTagFallbackEj(ptr noundef nonnull align 8 dereferenceable(80) %0, i32 noundef %.0.i)
  br label %_ZN6google8protobuf2io16CodedInputStream16ReadTagNoLastTagEv.exit

_ZN6google8protobuf2io16CodedInputStream16ReadTagNoLastTagEv.exit: ; preds = %39, %41
  %.05.i = phi i32 [ %37, %39 ], [ %42, %41 ]
  store i32 %.05.i, ptr %14, align 8, !tbaa !24
  %43 = icmp eq i32 %.05.i, 0
  %44 = and i32 %.05.i, 7
  %45 = icmp eq i32 %44, 4
  %or.cond57 = or i1 %43, %45
  br i1 %or.cond57, label %.split60.us, label %46

46:                                               ; preds = %_ZN6google8protobuf2io16CodedInputStream16ReadTagNoLastTagEv.exit
  %47 = lshr i32 %.05.i, 3
  %48 = tail call noundef ptr @_ZNK6google8protobuf10Descriptor17FindFieldByNumberEi(ptr noundef nonnull align 8 dereferenceable(136) %7, i32 noundef %47)
  %49 = icmp eq ptr %48, null
  br i1 %49, label %50, label %.thread45

50:                                               ; preds = %46
  %51 = tail call noundef ptr @_ZNK6google8protobuf10Descriptor34FindExtensionRangeContainingNumberEi(ptr noundef nonnull align 8 dereferenceable(136) %7, i32 noundef %47)
  %.not58 = icmp eq ptr %51, null
  br i1 %.not58, label %.thread, label %52

52:                                               ; preds = %50
  %53 = load ptr, ptr %15, align 8, !tbaa !55
  %54 = icmp eq ptr %53, null
  br i1 %54, label %55, label %57

55:                                               ; preds = %52
  %56 = tail call noundef ptr @_ZNK6google8protobuf10Reflection26FindKnownExtensionByNumberEi(ptr noundef nonnull align 8 dereferenceable(96) %12, i32 noundef %47)
  br label %59

57:                                               ; preds = %52
  %58 = tail call noundef ptr @_ZNK6google8protobuf14DescriptorPool21FindExtensionByNumberEPKNS0_10DescriptorEi(ptr noundef nonnull align 8 dereferenceable(96) %53, ptr noundef nonnull %7, i32 noundef %47)
  br label %59

59:                                               ; preds = %55, %57
  %.131 = phi ptr [ %56, %55 ], [ %58, %57 ]
  %60 = icmp eq ptr %.131, null
  br i1 %60, label %.thread, label %.thread45

.thread:                                          ; preds = %50, %59
  %61 = load ptr, ptr %16, align 8, !tbaa !56
  %62 = getelementptr inbounds nuw i8, ptr %61, i64 72
  %63 = load i8, ptr %62, align 8, !tbaa !71, !range !85, !noundef !86
  %64 = trunc nuw i8 %63 to i1
  %65 = icmp eq i32 %.05.i, 11
  %or.cond = and i1 %65, %64
  br i1 %or.cond, label %66, label %.thread45

66:                                               ; preds = %.thread
  %67 = tail call noundef zeroext i1 @_ZN6google8protobuf8internal10WireFormat27ParseAndMergeMessageSetItemEPNS0_2io16CodedInputStreamEPNS0_7MessageE(ptr noundef nonnull %0, ptr noundef nonnull %1)
  br i1 %67, label %.split.backedge, label %.split60.us

.thread45:                                        ; preds = %46, %59, %.thread
  %.030 = phi ptr [ %.131, %59 ], [ null, %.thread ], [ %48, %46 ]
  %68 = tail call noundef zeroext i1 @_ZN6google8protobuf8internal10WireFormat18ParseAndMergeFieldEjPKNS0_15FieldDescriptorEPNS0_7MessageEPNS0_2io16CodedInputStreamE(i32 noundef %.05.i, ptr noundef %.030, ptr noundef nonnull %1, ptr noundef nonnull %0)
  br i1 %68, label %.split.backedge, label %.split60.us

.split.backedge:                                  ; preds = %.thread45, %66
  br label %.split

.split60.us:                                      ; preds = %.thread45, %66, %_ZN6google8protobuf2io16CodedInputStream16ReadTagNoLastTagEv.exit, %_ZN6google8protobuf2io16CodedInputStream16ReadTagNoLastTagEv.exit.us, %.thread45.us
  %.us-phi = phi i1 [ %or.cond57.us, %.thread45.us ], [ %or.cond57.us, %_ZN6google8protobuf2io16CodedInputStream16ReadTagNoLastTagEv.exit.us ], [ %or.cond57, %_ZN6google8protobuf2io16CodedInputStream16ReadTagNoLastTagEv.exit ], [ %or.cond57, %66 ], [ %or.cond57, %.thread45 ]
  ret i1 %.us-phi
}